target datalayout = "e-m:e-p270:32:32-p271:32:32-p272:64:64-i64:64-i128:128-f80:128-n8:16:32:64-S128"
target triple = "x86_64-pc-linux-gnu"

%struct.IDAMemRec = type { ptr, double, ptr, ptr, i32, double, double, ptr, i32, i32, ptr, ptr, i32, i32, i32, ptr, ptr, i32, i32, double, double, ptr, i32, i32, i32, i32, ptr, ptr, i32, ptr, ptr, ptr, i32, double, i32, i32, double, ptr, ptr, ptr, i32, ptr, ptr, i32, i32, i32, double, ptr, ptr, ptr, [6 x ptr], [6 x double], [6 x double], [6 x double], [6 x double], [6 x double], ptr, ptr, ptr, ptr, ptr, ptr, ptr, ptr, ptr, ptr, ptr, ptr, ptr, ptr, ptr, ptr, ptr, [6 x ptr], ptr, ptr, ptr, ptr, [6 x ptr], ptr, ptr, ptr, ptr, ptr, ptr, ptr, ptr, ptr, ptr, ptr, ptr, ptr, ptr, ptr, ptr, [6 x ptr], ptr, ptr, ptr, ptr, ptr, double, ptr, ptr, i32, i32, i32, i32, i32, i32, i32, i32, double, double, double, i32, double, i32, i32, i32, i32, i32, double, double, double, double, double, double, double, double, double, double, double, double, double, double, double, double, double, i32, i32, i32, i32, i64, double, double, double, double, double, double, double, double, double, i64, i64, i64, i64, i64, i64, i64, i64, i64, i64, i64, i64, i64, i64, i64, i64, i64, i64, i64, i64, i64, i64, i64, i64, i64, i64, double, i32, i32, i32, i32, i32, i32, i32, i32, i32, i32, i32, i32, i32, ptr, i32, ptr, i32, ptr, i32, ptr, ptr, ptr, ptr, ptr, ptr, i32, i32, ptr, ptr, ptr, ptr, ptr, ptr, ptr, double, i32, i32, ptr, i32, ptr, ptr, double, double, double, ptr, ptr, ptr, double, double, i32, i32, i64, ptr, i32, ptr, [5 x double], ptr, ptr, i32, ptr, i32 }

@.str = private unnamed_addr constant [114 x i8] c"generated/home/dtcxzyw/WorkSpace/Projects/compilers/llvm-opt-benchmark/bench/sundials/sundials/src/idas/idas_io.c\00", align 1
@.str.1 = private unnamed_addr constant [24 x i8] c"ida_mem = NULL illegal.\00", align 1
@__func__.IDASetStopTime = private unnamed_addr constant [15 x i8] c"IDASetStopTime\00", align 1
@.str.6 = private unnamed_addr constant [82 x i8] c"The value tstop = %lg is behind current t = %lg, in the direction of integration.\00", align 1

; Function Attrs: nounwind uwtable
define i32 @IDASetStopTime(ptr noundef %0, double noundef %1) #0 {
  %3 = alloca i32, align 4
  %4 = alloca ptr, align 8
  %5 = alloca double, align 8
  %6 = alloca ptr, align 8
  store ptr %0, ptr %4, align 8
  store double %1, ptr %5, align 8
  %7 = load ptr, ptr %4, align 8
  %8 = icmp eq ptr %7, null
  br i1 %8, label %9, label %10

9:                                                ; preds = %2
  call void (ptr, i32, i32, ptr, ptr, ptr, ...) @IDAProcessError(ptr noundef null, i32 noundef -20, i32 noundef 363, ptr noundef @__func__.IDASetStopTime, ptr noundef @.str, ptr noundef @.str.1)
  store i32 -20, ptr %3, align 4
  br label %40

10:                                               ; preds = %2
  %11 = load ptr, ptr %4, align 8
  store ptr %11, ptr %6, align 8
  %12 = load ptr, ptr %6, align 8
  %13 = getelementptr inbounds %struct.IDAMemRec, ptr %12, i32 0, i32 153
  %14 = load i64, ptr %13, align 8
  %15 = icmp sgt i64 %14, 0
  br i1 %15, label %16, label %34

16:                                               ; preds = %10
  %17 = load double, ptr %5, align 8
  %18 = load ptr, ptr %6, align 8
  %19 = getelementptr inbounds %struct.IDAMemRec, ptr %18, i32 0, i32 127
  %20 = load double, ptr %19, align 8
  %21 = fsub double %17, %20
  %22 = load ptr, ptr %6, align 8
  %23 = getelementptr inbounds %struct.IDAMemRec, ptr %22, i32 0, i32 124
  %24 = load double, ptr %23, align 8
  %25 = fmul double %21, %24
  %26 = fcmp olt double %25, 0.000000e+00
  br i1 %26, label %27, label %33

27:                                               ; preds = %16
  %28 = load ptr, ptr %6, align 8
  %29 = load double, ptr %5, align 8
  %30 = load ptr, ptr %6, align 8
  %31 = getelementptr inbounds %struct.IDAMemRec, ptr %30, i32 0, i32 127
  %32 = load double, ptr %31, align 8
  call void (ptr, i32, i32, ptr, ptr, ptr, ...) @IDAProcessError(ptr noundef %28, i32 noundef -22, i32 noundef 377, ptr noundef @__func__.IDASetStopTime, ptr noundef @.str, ptr noundef @.str.6, double noundef %29, double noundef %32)
  store i32 -22, ptr %3, align 4
  br label %40

33:                                               ; preds = %16
  br label %34

34:                                               ; preds = %33, %10
  %35 = load double, ptr %5, align 8
  %36 = load ptr, ptr %6, align 8
  %37 = getelementptr inbounds %struct.IDAMemRec, ptr %36, i32 0, i32 116
  store double %35, ptr %37, align 8
  %38 = load ptr, ptr %6, align 8
  %39 = getelementptr inbounds %struct.IDAMemRec, ptr %38, i32 0, i32 115
  store i32 1, ptr %39, align 8
  store i32 0, ptr %3, align 4
  br label %40

40:                                               ; preds = %34, %27, %9
  %41 = load i32, ptr %3, align 4
  ret i32 %41
}